target datalayout = "e-m:e-p270:32:32-p271:32:32-p272:64:64-i64:64-i128:128-f80:128-n8:16:32:64-S128"
target triple = "x86_64-pc-linux-gnu"

%"class.llvm::MMRAMetadata" = type { %"class.llvm::DenseSet" }
%"class.llvm::DenseSet" = type { %"class.llvm::detail::DenseSetImpl" }
%"class.llvm::detail::DenseSetImpl" = type { %"class.llvm::DenseMap" }
%"class.llvm::DenseMap" = type <{ ptr, i32, i32, i32, [4 x i8] }>
%"struct.std::pair" = type { %"class.llvm::StringRef", %"class.llvm::StringRef" }
%"class.llvm::StringRef" = type { ptr, i64 }

; Function Attrs: mustprogress nounwind uwtable
define linkonce_odr hidden noundef ptr @_ZNK4llvm12DenseMapBaseINS_8DenseMapISt4pairINS_9StringRefES3_ENS_6detail13DenseSetEmptyENS_12DenseMapInfoIS4_vEENS5_12DenseSetPairIS4_EEEES4_S6_S8_SA_E6doFindIS4_EEPKSA_RKT_(ptr noundef nonnull align 1 dereferenceable(1) %0, ptr noundef nonnull align 8 dereferenceable(32) %1) #0 comdat align 2 {
  %3 = alloca ptr, align 8
  %4 = alloca ptr, align 8
  store ptr %0, ptr %3, align 8
  store ptr %1, ptr %4, align 8
  %5 = load ptr, ptr %3, align 8
  %6 = load ptr, ptr %4, align 8
  %7 = call noundef ptr @_ZN4llvm12DenseMapBaseINS_8DenseMapISt4pairINS_9StringRefES3_ENS_6detail13DenseSetEmptyENS_12DenseMapInfoIS4_vEENS5_12DenseSetPairIS4_EEEES4_S6_S8_SA_E6doFindIS4_EEPSA_RKT_(ptr noundef nonnull align 1 dereferenceable(1) %5, ptr noundef nonnull align 8 dereferenceable(32) %6)
  ret ptr %7
}

; Function Attrs: mustprogress nounwind uwtable
define linkonce_odr hidden noundef zeroext i1 @_ZNK4llvm12DenseMapBaseINS_8DenseMapISt4pairINS_9StringRefES3_ENS_6detail13DenseSetEmptyENS_12DenseMapInfoIS4_vEENS5_12DenseSetPairIS4_EEEES4_S6_S8_SA_E8containsERKS4_(ptr noundef nonnull align 1 dereferenceable(1) %0, ptr noundef nonnull align 8 dereferenceable(32) %1) #0 comdat align 2 {
  %3 = alloca ptr, align 8
  %4 = alloca ptr, align 8
  store ptr %0, ptr %3, align 8
  store ptr %1, ptr %4, align 8
  %5 = load ptr, ptr %3, align 8
  %6 = load ptr, ptr %4, align 8
  %7 = call noundef ptr @_ZNK4llvm12DenseMapBaseINS_8DenseMapISt4pairINS_9StringRefES3_ENS_6detail13DenseSetEmptyENS_12DenseMapInfoIS4_vEENS5_12DenseSetPairIS4_EEEES4_S6_S8_SA_E6doFindIS4_EEPKSA_RKT_(ptr noundef nonnull align 1 dereferenceable(1) %5, ptr noundef nonnull align 8 dereferenceable(32) %6)
  %8 = icmp ne ptr %7, null
  ret i1 %8
}

; Function Attrs: mustprogress nounwind uwtable
define linkonce_odr hidden noundef i32 @_ZNK4llvm12DenseMapBaseINS_8DenseMapISt4pairINS_9StringRefES3_ENS_6detail13DenseSetEmptyENS_12DenseMapInfoIS4_vEENS5_12DenseSetPairIS4_EEEES4_S6_S8_SA_E5countERKS4_(ptr noundef nonnull align 1 dereferenceable(1) %0, ptr noundef nonnull align 8 dereferenceable(32) %1) #0 comdat align 2 {
  %3 = alloca ptr, align 8
  %4 = alloca ptr, align 8
  store ptr %0, ptr %3, align 8
  store ptr %1, ptr %4, align 8
  %5 = load ptr, ptr %3, align 8
  %6 = load ptr, ptr %4, align 8
  %7 = call noundef zeroext i1 @_ZNK4llvm12DenseMapBaseINS_8DenseMapISt4pairINS_9StringRefES3_ENS_6detail13DenseSetEmptyENS_12DenseMapInfoIS4_vEENS5_12DenseSetPairIS4_EEEES4_S6_S8_SA_E8containsERKS4_(ptr noundef nonnull align 1 dereferenceable(1) %5, ptr noundef nonnull align 8 dereferenceable(32) %6)
  %8 = select i1 %7, i32 1, i32 0
  ret i32 %8
}

; Function Attrs: mustprogress nounwind uwtable
define linkonce_odr hidden noundef i32 @_ZNK4llvm6detail12DenseSetImplISt4pairINS_9StringRefES3_ENS_8DenseMapIS4_NS0_13DenseSetEmptyENS_12DenseMapInfoIS4_vEENS0_12DenseSetPairIS4_EEEES8_E5countERKS4_(ptr noundef nonnull align 8 dereferenceable(24) %0, ptr noundef nonnull align 8 dereferenceable(32) %1) #0 comdat align 2 {
  %3 = alloca ptr, align 8
  %4 = alloca ptr, align 8
  store ptr %0, ptr %3, align 8
  store ptr %1, ptr %4, align 8
  %5 = load ptr, ptr %3, align 8
  %6 = getelementptr inbounds nuw %"class.llvm::detail::DenseSetImpl", ptr %5, i32 0, i32 0
  %7 = load ptr, ptr %4, align 8
  %8 = call noundef i32 @_ZNK4llvm12DenseMapBaseINS_8DenseMapISt4pairINS_9StringRefES3_ENS_6detail13DenseSetEmptyENS_12DenseMapInfoIS4_vEENS5_12DenseSetPairIS4_EEEES4_S6_S8_SA_E5countERKS4_(ptr noundef nonnull align 1 dereferenceable(1) %6, ptr noundef nonnull align 8 dereferenceable(32) %7)
  ret i32 %8
}

; Function Attrs: mustprogress nounwind uwtable
define linkonce_odr hidden void @_ZNSt4pairIN4llvm9StringRefES1_EC2IRS1_S4_TnNSt9enable_ifIXaaclsr5_PCCPE22_MoveConstructiblePairIT_T0_EEclsr5_PCCPE30_ImplicitlyMoveConvertiblePairIS6_S7_EEEbE4typeELb1EEEOS6_OS7_(ptr noundef nonnull align 8 dereferenceable(32) %0, ptr noundef nonnull align 8 dereferenceable(16) %1, ptr noundef nonnull align 8 dereferenceable(16) %2) unnamed_addr #0 comdat align 2 {
  %4 = alloca ptr, align 8
  %5 = alloca ptr, align 8
  %6 = alloca ptr, align 8
  store ptr %0, ptr %4, align 8
  store ptr %1, ptr %5, align 8
  store ptr %2, ptr %6, align 8
  %7 = load ptr, ptr %4, align 8
  %8 = getelementptr inbounds nuw %"struct.std::pair", ptr %7, i32 0, i32 0
  %9 = load ptr, ptr %5, align 8
  call void @llvm.memcpy.p0.p0.i64(ptr align 8 %8, ptr align 8 %9, i64 16, i1 false)
  %10 = getelementptr inbounds nuw %"struct.std::pair", ptr %7, i32 0, i32 1
  %11 = load ptr, ptr %6, align 8
  call void @llvm.memcpy.p0.p0.i64(ptr align 8 %10, ptr align 8 %11, i64 16, i1 false)
  ret void
}

; Function Attrs: mustprogress nounwind uwtable
define dso_local noundef zeroext i1 @_ZNK4llvm12MMRAMetadata6hasTagENS_9StringRefES1_(ptr noundef nonnull align 8 dereferenceable(24) %0, ptr %1, i64 %2, ptr %3, i64 %4) #0 align 2 {
  %6 = alloca %"class.llvm::StringRef", align 8
  %7 = alloca %"class.llvm::StringRef", align 8
  %8 = alloca ptr, align 8
  %9 = alloca %"struct.std::pair", align 8
  %10 = getelementptr inbounds nuw { ptr, i64 }, ptr %6, i32 0, i32 0
  store ptr %1, ptr %10, align 8
  %11 = getelementptr inbounds nuw { ptr, i64 }, ptr %6, i32 0, i32 1
  store i64 %2, ptr %11, align 8
  %12 = getelementptr inbounds nuw { ptr, i64 }, ptr %7, i32 0, i32 0
  store ptr %3, ptr %12, align 8
  %13 = getelementptr inbounds nuw { ptr, i64 }, ptr %7, i32 0, i32 1
  store i64 %4, ptr %13, align 8
  store ptr %0, ptr %8, align 8
  %14 = load ptr, ptr %8, align 8
  %15 = getelementptr inbounds nuw %"class.llvm::MMRAMetadata", ptr %14, i32 0, i32 0
  call void @_ZNSt4pairIN4llvm9StringRefES1_EC2IRS1_S4_TnNSt9enable_ifIXaaclsr5_PCCPE22_MoveConstructiblePairIT_T0_EEclsr5_PCCPE30_ImplicitlyMoveConvertiblePairIS6_S7_EEEbE4typeELb1EEEOS6_OS7_(ptr noundef nonnull align 8 dereferenceable(32) %9, ptr noundef nonnull align 8 dereferenceable(16) %6, ptr noundef nonnull align 8 dereferenceable(16) %7)
  %16 = call noundef i32 @_ZNK4llvm6detail12DenseSetImplISt4pairINS_9StringRefES3_ENS_8DenseMapIS4_NS0_13DenseSetEmptyENS_12DenseMapInfoIS4_vEENS0_12DenseSetPairIS4_EEEES8_E5countERKS4_(ptr noundef nonnull align 8 dereferenceable(24) %15, ptr noundef nonnull align 8 dereferenceable(32) %9)
  %17 = icmp ne i32 %16, 0
  ret i1 %17
}