; Function Attrs: mustprogress nounwind uwtable
define dso_local noundef zeroext i1 @_ZNK4llvm12MMRAMetadata6hasTagENS_9StringRefES1_(ptr noundef nonnull align 8 dereferenceable(24) %0, ptr %1, i64 %2, ptr %3, i64 %4) local_unnamed_addr #0 align 2 {
  %6 = alloca %"struct.std::pair", align 8
  store ptr %1, ptr %6, align 8
  %.sroa.22.0..sroa_idx = getelementptr inbounds i8, ptr %6, i64 8
  store i64 %2, ptr %.sroa.22.0..sroa_idx, align 8
  %7 = getelementptr inbounds nuw i8, ptr %6, i64 16
  store ptr %3, ptr %7, align 8
  %.sroa.2.0..sroa_idx = getelementptr inbounds i8, ptr %6, i64 24
  store i64 %4, ptr %.sroa.2.0..sroa_idx, align 8
  %8 = call noundef ptr @_ZN4llvm12DenseMapBaseINS_8DenseMapISt4pairINS_9StringRefES3_ENS_6detail13DenseSetEmptyENS_12DenseMapInfoIS4_vEENS5_12DenseSetPairIS4_EEEES4_S6_S8_SA_E6doFindIS4_EEPSA_RKT_(ptr noundef nonnull align 1 dereferenceable(1) %0, ptr noundef nonnull align 8 dereferenceable(32) %6)
  %9 = icmp ne ptr %8, null
  ret i1 %9
}